target datalayout = "e-m:e-p270:32:32-p271:32:32-p272:64:64-i64:64-i128:128-f80:128-n8:16:32:64-S128"
target triple = "x86_64-pc-linux-gnu"

%union.pthread_mutex_t = type { %struct.__pthread_mutex_s }
%struct.__pthread_mutex_s = type { i32, i32, i32, i32, i32, i16, i16, %struct.__pthread_internal_list }
%struct.__pthread_internal_list = type { ptr, ptr }
%struct.AVBPrint = type { ptr, i32, i32, i32, [1 x i8], [1000 x i8] }

@.str = private unnamed_addr constant [9 x i8] c"%s%s%s%s\00", align 1
@av_log_default_callback.print_prefix = internal global i32 1, align 4
@av_log_default_callback.count = internal global i32 0, align 4
@av_log_default_callback.prev = internal global [1024 x i8] zeroinitializer, align 16
@av_log_default_callback.is_atty = internal global i32 0, align 4
@av_log_level = internal global i32 32, align 4
@mutex = internal global %union.pthread_mutex_t zeroinitializer, align 8
@flags = internal global i32 0, align 4
@stderr = external global ptr, align 8
@.str.1 = private unnamed_addr constant [36 x i8] c"    Last message repeated %d times\0D\00", align 1
@.str.2 = private unnamed_addr constant [36 x i8] c"    Last message repeated %d times\0A\00", align 1

; Function Attrs: alwaysinline nounwind willreturn memory(none) uwtable
define internal i32 @av_clip_c(i32 noundef %0, i32 noundef %1, i32 noundef %2) #5 {
  %4 = alloca i32, align 4
  %5 = alloca i32, align 4
  %6 = alloca i32, align 4
  %7 = alloca i32, align 4
  store i32 %0, ptr %5, align 4, !tbaa !16
  store i32 %1, ptr %6, align 4, !tbaa !16
  store i32 %2, ptr %7, align 4, !tbaa !16
  %8 = load i32, ptr %5, align 4, !tbaa !16
  %9 = load i32, ptr %6, align 4, !tbaa !16
  %10 = icmp slt i32 %8, %9
  br i1 %10, label %11, label %13

11:                                               ; preds = %3
  %12 = load i32, ptr %6, align 4, !tbaa !16
  store i32 %12, ptr %4, align 4
  br label %21

13:                                               ; preds = %3
  %14 = load i32, ptr %5, align 4, !tbaa !16
  %15 = load i32, ptr %7, align 4, !tbaa !16
  %16 = icmp sgt i32 %14, %15
  br i1 %16, label %17, label %19

17:                                               ; preds = %13
  %18 = load i32, ptr %7, align 4, !tbaa !16
  store i32 %18, ptr %4, align 4
  br label %21

19:                                               ; preds = %13
  %20 = load i32, ptr %5, align 4, !tbaa !16
  store i32 %20, ptr %4, align 4
  br label %21

21:                                               ; preds = %19, %17, %11
  %22 = load i32, ptr %4, align 4
  ret i32 %22
}

; Function Attrs: nounwind uwtable
define internal void @sanitize(ptr noundef %0) #0 {
  %2 = alloca ptr, align 8
  store ptr %0, ptr %2, align 8, !tbaa !17
  br label %3

3:                                                ; preds = %24, %1
  %4 = load ptr, ptr %2, align 8, !tbaa !17
  %5 = load i8, ptr %4, align 1, !tbaa !30
  %6 = icmp ne i8 %5, 0
  br i1 %6, label %7, label %27

7:                                                ; preds = %3
  %8 = load ptr, ptr %2, align 8, !tbaa !17
  %9 = load i8, ptr %8, align 1, !tbaa !30
  %10 = zext i8 %9 to i32
  %11 = icmp slt i32 %10, 8
  br i1 %11, label %22, label %12

12:                                               ; preds = %7
  %13 = load ptr, ptr %2, align 8, !tbaa !17
  %14 = load i8, ptr %13, align 1, !tbaa !30
  %15 = zext i8 %14 to i32
  %16 = icmp sgt i32 %15, 13
  br i1 %16, label %17, label %24

17:                                               ; preds = %12
  %18 = load ptr, ptr %2, align 8, !tbaa !17
  %19 = load i8, ptr %18, align 1, !tbaa !30
  %20 = zext i8 %19 to i32
  %21 = icmp slt i32 %20, 32
  br i1 %21, label %22, label %24

22:                                               ; preds = %17, %7
  %23 = load ptr, ptr %2, align 8, !tbaa !17
  store i8 63, ptr %23, align 1, !tbaa !30
  br label %24

24:                                               ; preds = %22, %17, %12
  %25 = load ptr, ptr %2, align 8, !tbaa !17
  %26 = getelementptr inbounds nuw i8, ptr %25, i32 1
  store ptr %26, ptr %2, align 8, !tbaa !17
  br label %3, !llvm.loop !35

27:                                               ; preds = %3
  ret void
}

; Function Attrs: nounwind uwtable
define void @av_log_default_callback(ptr noundef %0, i32 noundef %1, ptr noundef %2, ptr noundef %3) #0 {
  %5 = alloca ptr, align 8
  %6 = alloca i32, align 4
  %7 = alloca ptr, align 8
  %8 = alloca ptr, align 8
  %9 = alloca [5 x %struct.AVBPrint], align 16
  %10 = alloca [1024 x i8], align 16
  %11 = alloca [2 x i32], align 4
  %12 = alloca i32, align 4
  %13 = alloca i32, align 4
  store ptr %0, ptr %5, align 8, !tbaa !4
  store i32 %1, ptr %6, align 4, !tbaa !16
  store ptr %2, ptr %7, align 8, !tbaa !17
  store ptr %3, ptr %8, align 8, !tbaa !18
  call void @llvm.lifetime.start.p0(i64 5120, ptr %9) #7
  call void @llvm.lifetime.start.p0(i64 1024, ptr %10) #7
  call void @llvm.lifetime.start.p0(i64 8, ptr %11) #7
  call void @llvm.lifetime.start.p0(i64 4, ptr %12) #7
  store i32 0, ptr %12, align 4, !tbaa !16
  %14 = load i32, ptr %6, align 4, !tbaa !16
  %15 = icmp sge i32 %14, 0
  br i1 %15, label %16, label %21

16:                                               ; preds = %4
  %17 = load i32, ptr %6, align 4, !tbaa !16
  %18 = and i32 %17, 65280
  store i32 %18, ptr %12, align 4, !tbaa !16
  %19 = load i32, ptr %6, align 4, !tbaa !16
  %20 = and i32 %19, 255
  store i32 %20, ptr %6, align 4, !tbaa !16
  br label %21

21:                                               ; preds = %16, %4
  %22 = load i32, ptr %6, align 4, !tbaa !16
  %23 = load i32, ptr @av_log_level, align 4, !tbaa !16
  %24 = icmp sgt i32 %22, %23
  br i1 %24, label %25, label %26

25:                                               ; preds = %21
  store i32 1, ptr %13, align 4
  br label %147

26:                                               ; preds = %21
  %27 = call i32 @pthread_mutex_lock(ptr noundef @mutex) #7
  %28 = load ptr, ptr %5, align 8, !tbaa !4
  %29 = load i32, ptr %6, align 4, !tbaa !16
  %30 = load ptr, ptr %7, align 8, !tbaa !17
  %31 = load ptr, ptr %8, align 8, !tbaa !18
  %32 = getelementptr inbounds [5 x %struct.AVBPrint], ptr %9, i64 0, i64 0
  %33 = getelementptr inbounds [2 x i32], ptr %11, i64 0, i64 0
  call void @format_line(ptr noundef %28, i32 noundef %29, ptr noundef %30, ptr noundef %31, ptr noundef %32, ptr noundef @av_log_default_callback.print_prefix, ptr noundef %33)
  %34 = getelementptr inbounds [1024 x i8], ptr %10, i64 0, i64 0
  %35 = getelementptr inbounds [5 x %struct.AVBPrint], ptr %9, i64 0, i64 0
  %36 = getelementptr inbounds nuw %struct.AVBPrint, ptr %35, i32 0, i32 0
  %37 = load ptr, ptr %36, align 16, !tbaa !22
  %38 = getelementptr inbounds [5 x %struct.AVBPrint], ptr %9, i64 0, i64 1
  %39 = getelementptr inbounds nuw %struct.AVBPrint, ptr %38, i32 0, i32 0
  %40 = load ptr, ptr %39, align 16, !tbaa !22
  %41 = getelementptr inbounds [5 x %struct.AVBPrint], ptr %9, i64 0, i64 2
  %42 = getelementptr inbounds nuw %struct.AVBPrint, ptr %41, i32 0, i32 0
  %43 = load ptr, ptr %42, align 16, !tbaa !22
  %44 = getelementptr inbounds [5 x %struct.AVBPrint], ptr %9, i64 0, i64 3
  %45 = getelementptr inbounds nuw %struct.AVBPrint, ptr %44, i32 0, i32 0
  %46 = load ptr, ptr %45, align 16, !tbaa !22
  %47 = call i32 (ptr, i64, ptr, ...) @snprintf(ptr noundef %34, i64 noundef 1024, ptr noundef @.str, ptr noundef %37, ptr noundef %40, ptr noundef %43, ptr noundef %46) #7
  %48 = load i32, ptr @av_log_default_callback.is_atty, align 4, !tbaa !16
  %49 = icmp ne i32 %48, 0
  br i1 %49, label %54, label %50

50:                                               ; preds = %26
  %51 = call i32 @isatty(i32 noundef 2) #7
  %52 = icmp ne i32 %51, 0
  %53 = select i1 %52, i32 1, i32 -1
  store i32 %53, ptr @av_log_default_callback.is_atty, align 4, !tbaa !16
  br label %54

54:                                               ; preds = %50, %26
  %55 = load i32, ptr @av_log_default_callback.print_prefix, align 4, !tbaa !16
  %56 = icmp ne i32 %55, 0
  br i1 %56, label %57, label %88

57:                                               ; preds = %54
  %58 = load i32, ptr @flags, align 4, !tbaa !16
  %59 = and i32 %58, 1
  %60 = icmp ne i32 %59, 0
  br i1 %60, label %61, label %88

61:                                               ; preds = %57
  %62 = getelementptr inbounds [1024 x i8], ptr %10, i64 0, i64 0
  %63 = call i32 @strcmp(ptr noundef %62, ptr noundef @av_log_default_callback.prev) #8
  %64 = icmp ne i32 %63, 0
  br i1 %64, label %88, label %65

65:                                               ; preds = %61
  %66 = getelementptr inbounds [1024 x i8], ptr %10, i64 0, i64 0
  %67 = load i8, ptr %66, align 16, !tbaa !30
  %68 = sext i8 %67 to i32
  %69 = icmp ne i32 %68, 0
  br i1 %69, label %70, label %88

70:                                               ; preds = %65
  %71 = getelementptr inbounds [1024 x i8], ptr %10, i64 0, i64 0
  %72 = call i64 @strlen(ptr noundef %71) #8
  %73 = sub i64 %72, 1
  %74 = getelementptr inbounds nuw [1024 x i8], ptr %10, i64 0, i64 %73
  %75 = load i8, ptr %74, align 1, !tbaa !30
  %76 = sext i8 %75 to i32
  %77 = icmp ne i32 %76, 13
  br i1 %77, label %78, label %88

78:                                               ; preds = %70
  %79 = load i32, ptr @av_log_default_callback.count, align 4, !tbaa !16
  %80 = add nsw i32 %79, 1
  store i32 %80, ptr @av_log_default_callback.count, align 4, !tbaa !16
  %81 = load i32, ptr @av_log_default_callback.is_atty, align 4, !tbaa !16
  %82 = icmp eq i32 %81, 1
  br i1 %82, label %83, label %87

83:                                               ; preds = %78
  %84 = load ptr, ptr @stderr, align 8, !tbaa !33
  %85 = load i32, ptr @av_log_default_callback.count, align 4, !tbaa !16
  %86 = call i32 (ptr, ptr, ...) @fprintf(ptr noundef %84, ptr noundef @.str.1, i32 noundef %85) #7
  br label %87

87:                                               ; preds = %83, %78
  br label %142

88:                                               ; preds = %70, %65, %61, %57, %54
  %89 = load i32, ptr @av_log_default_callback.count, align 4, !tbaa !16
  %90 = icmp sgt i32 %89, 0
  br i1 %90, label %91, label %95

91:                                               ; preds = %88
  %92 = load ptr, ptr @stderr, align 8, !tbaa !33
  %93 = load i32, ptr @av_log_default_callback.count, align 4, !tbaa !16
  %94 = call i32 (ptr, ptr, ...) @fprintf(ptr noundef %92, ptr noundef @.str.2, i32 noundef %93) #7
  store i32 0, ptr @av_log_default_callback.count, align 4, !tbaa !16
  br label %95

95:                                               ; preds = %91, %88
  %96 = getelementptr inbounds [1024 x i8], ptr %10, i64 0, i64 0
  %97 = call ptr @strcpy(ptr noundef @av_log_default_callback.prev, ptr noundef %96) #7
  %98 = getelementptr inbounds [5 x %struct.AVBPrint], ptr %9, i64 0, i64 4
  %99 = getelementptr inbounds nuw %struct.AVBPrint, ptr %98, i32 0, i32 0
  %100 = load ptr, ptr %99, align 16, !tbaa !22
  call void @sanitize(ptr noundef %100)
  %101 = getelementptr inbounds [5 x %struct.AVBPrint], ptr %9, i64 0, i64 4
  %102 = getelementptr inbounds nuw %struct.AVBPrint, ptr %101, i32 0, i32 0
  %103 = load ptr, ptr %102, align 16, !tbaa !22
  call void @colored_fputs(i32 noundef 7, i32 noundef 0, ptr noundef %103)
  %104 = getelementptr inbounds [5 x %struct.AVBPrint], ptr %9, i64 0, i64 0
  %105 = getelementptr inbounds nuw %struct.AVBPrint, ptr %104, i32 0, i32 0
  %106 = load ptr, ptr %105, align 16, !tbaa !22
  call void @sanitize(ptr noundef %106)
  %107 = getelementptr inbounds [2 x i32], ptr %11, i64 0, i64 0
  %108 = load i32, ptr %107, align 4, !tbaa !16
  %109 = getelementptr inbounds [5 x %struct.AVBPrint], ptr %9, i64 0, i64 0
  %110 = getelementptr inbounds nuw %struct.AVBPrint, ptr %109, i32 0, i32 0
  %111 = load ptr, ptr %110, align 16, !tbaa !22
  call void @colored_fputs(i32 noundef %108, i32 noundef 0, ptr noundef %111)
  %112 = getelementptr inbounds [5 x %struct.AVBPrint], ptr %9, i64 0, i64 1
  %113 = getelementptr inbounds nuw %struct.AVBPrint, ptr %112, i32 0, i32 0
  %114 = load ptr, ptr %113, align 16, !tbaa !22
  call void @sanitize(ptr noundef %114)
  %115 = getelementptr inbounds [2 x i32], ptr %11, i64 0, i64 1
  %116 = load i32, ptr %115, align 4, !tbaa !16
  %117 = getelementptr inbounds [5 x %struct.AVBPrint], ptr %9, i64 0, i64 1
  %118 = getelementptr inbounds nuw %struct.AVBPrint, ptr %117, i32 0, i32 0
  %119 = load ptr, ptr %118, align 16, !tbaa !22
  call void @colored_fputs(i32 noundef %116, i32 noundef 0, ptr noundef %119)
  %120 = getelementptr inbounds [5 x %struct.AVBPrint], ptr %9, i64 0, i64 2
  %121 = getelementptr inbounds nuw %struct.AVBPrint, ptr %120, i32 0, i32 0
  %122 = load ptr, ptr %121, align 16, !tbaa !22
  call void @sanitize(ptr noundef %122)
  %123 = load i32, ptr %6, align 4, !tbaa !16
  %124 = ashr i32 %123, 3
  %125 = call i32 @av_clip_c(i32 noundef %124, i32 noundef 0, i32 noundef 7) #9
  %126 = load i32, ptr %12, align 4, !tbaa !16
  %127 = lshr i32 %126, 8
  %128 = getelementptr inbounds [5 x %struct.AVBPrint], ptr %9, i64 0, i64 2
  %129 = getelementptr inbounds nuw %struct.AVBPrint, ptr %128, i32 0, i32 0
  %130 = load ptr, ptr %129, align 16, !tbaa !22
  call void @colored_fputs(i32 noundef %125, i32 noundef %127, ptr noundef %130)
  %131 = getelementptr inbounds [5 x %struct.AVBPrint], ptr %9, i64 0, i64 3
  %132 = getelementptr inbounds nuw %struct.AVBPrint, ptr %131, i32 0, i32 0
  %133 = load ptr, ptr %132, align 16, !tbaa !22
  call void @sanitize(ptr noundef %133)
  %134 = load i32, ptr %6, align 4, !tbaa !16
  %135 = ashr i32 %134, 3
  %136 = call i32 @av_clip_c(i32 noundef %135, i32 noundef 0, i32 noundef 7) #9
  %137 = load i32, ptr %12, align 4, !tbaa !16
  %138 = lshr i32 %137, 8
  %139 = getelementptr inbounds [5 x %struct.AVBPrint], ptr %9, i64 0, i64 3
  %140 = getelementptr inbounds nuw %struct.AVBPrint, ptr %139, i32 0, i32 0
  %141 = load ptr, ptr %140, align 16, !tbaa !22
  call void @colored_fputs(i32 noundef %136, i32 noundef %138, ptr noundef %141)
  br label %142

142:                                              ; preds = %95, %87
  %143 = getelementptr inbounds [5 x %struct.AVBPrint], ptr %9, i64 0, i64 0
  %144 = getelementptr inbounds %struct.AVBPrint, ptr %143, i64 3
  %145 = call i32 @av_bprint_finalize(ptr noundef %144, ptr noundef null)
  %146 = call i32 @pthread_mutex_unlock(ptr noundef @mutex) #7
  store i32 0, ptr %13, align 4
  br label %147

147:                                              ; preds = %142, %25
  call void @llvm.lifetime.end.p0(i64 4, ptr %12) #7
  call void @llvm.lifetime.end.p0(i64 8, ptr %11) #7
  call void @llvm.lifetime.end.p0(i64 1024, ptr %10) #7
  call void @llvm.lifetime.end.p0(i64 5120, ptr %9) #7
  %148 = load i32, ptr %13, align 4
  switch i32 %148, label %150 [
    i32 0, label %149
    i32 1, label %149
  ]

149:                                              ; preds = %147, %147
  ret void

150:                                              ; preds = %147
  unreachable
}