; Function Attrs: nounwind uwtable
define void @av_log_default_callback(ptr noundef %0, i32 noundef %1, ptr noundef %2, ptr noundef %3) #1 {
  %5 = alloca [5 x %struct.AVBPrint], align 16
  %6 = alloca [1024 x i8], align 16
  %7 = alloca [2 x i32], align 4
  call void @llvm.lifetime.start.p0(i64 5120, ptr nonnull %5) #14
  call void @llvm.lifetime.start.p0(i64 1024, ptr nonnull %6) #14
  call void @llvm.lifetime.start.p0(i64 8, ptr nonnull %7) #14
  %8 = icmp sgt i32 %1, -1
  %9 = and i32 %1, 255
  %10 = lshr i32 %1, 8
  %11 = and i32 %10, 255
  %.014 = select i1 %8, i32 %9, i32 %1
  %.0 = select i1 %8, i32 %11, i32 0
  %12 = load i32, ptr @av_log_level, align 4, !tbaa !17
  %13 = icmp sgt i32 %.014, %12
  br i1 %13, label %118, label %14

14:                                               ; preds = %4
  %15 = tail call i32 @pthread_mutex_lock(ptr noundef nonnull @mutex) #14
  call fastcc void @format_line(ptr noundef %0, i32 noundef %.014, ptr noundef %2, ptr noundef %3, ptr noundef %5, ptr noundef nonnull @av_log_default_callback.print_prefix, ptr noundef nonnull %7)
  %16 = load ptr, ptr %5, align 16, !tbaa !15
  %17 = getelementptr inbounds nuw i8, ptr %5, i64 1024
  %18 = load ptr, ptr %17, align 16, !tbaa !15
  %19 = getelementptr inbounds nuw i8, ptr %5, i64 2048
  %20 = load ptr, ptr %19, align 16, !tbaa !15
  %21 = getelementptr inbounds nuw i8, ptr %5, i64 3072
  %22 = load ptr, ptr %21, align 16, !tbaa !15
  %23 = call i32 (ptr, i64, ptr, ...) @snprintf(ptr noundef nonnull dereferenceable(1) %6, i64 noundef 1024, ptr noundef nonnull @.str, ptr noundef %16, ptr noundef %18, ptr noundef %20, ptr noundef %22) #14
  %24 = load i32, ptr @av_log_default_callback.is_atty, align 4, !tbaa !17
  %.not = icmp eq i32 %24, 0
  br i1 %.not, label %25, label %28

25:                                               ; preds = %14
  %26 = call i32 @isatty(i32 noundef 2) #14
  %.not17 = icmp eq i32 %26, 0
  %27 = select i1 %.not17, i32 -1, i32 1
  store i32 %27, ptr @av_log_default_callback.is_atty, align 4, !tbaa !17
  br label %28

28:                                               ; preds = %25, %14
  %29 = phi i32 [ %27, %25 ], [ %24, %14 ]
  %30 = load i32, ptr @av_log_default_callback.print_prefix, align 4, !tbaa !17
  %.not18 = icmp eq i32 %30, 0
  br i1 %.not18, label %51, label %31

31:                                               ; preds = %28
  %32 = load i32, ptr @flags, align 4, !tbaa !17
  %33 = and i32 %32, 1
  %.not19 = icmp eq i32 %33, 0
  br i1 %.not19, label %51, label %34

34:                                               ; preds = %31
  %35 = call i32 @strcmp(ptr noundef nonnull dereferenceable(1) %6, ptr noundef nonnull dereferenceable(1) @av_log_default_callback.prev) #15
  %36 = icmp eq i32 %35, 0
  %37 = load i8, ptr %6, align 16
  %38 = icmp ne i8 %37, 0
  %or.cond = select i1 %36, i1 %38, i1 false
  br i1 %or.cond, label %39, label %51

39:                                               ; preds = %34
  %40 = call i64 @strlen(ptr noundef nonnull dereferenceable(1) %6) #15
  %41 = add i64 %40, -1
  %42 = getelementptr inbounds nuw [1024 x i8], ptr %6, i64 0, i64 %41
  %43 = load i8, ptr %42, align 1, !tbaa !27
  %.not20 = icmp eq i8 %43, 13
  br i1 %.not20, label %51, label %44

44:                                               ; preds = %39
  %45 = load i32, ptr @av_log_default_callback.count, align 4, !tbaa !17
  %46 = add nsw i32 %45, 1
  store i32 %46, ptr @av_log_default_callback.count, align 4, !tbaa !17
  %47 = icmp eq i32 %29, 1
  br i1 %47, label %48, label %115

48:                                               ; preds = %44
  %49 = load ptr, ptr @stderr, align 8, !tbaa !30
  %50 = call i32 (ptr, ptr, ...) @fprintf(ptr noundef %49, ptr noundef nonnull @.str.1, i32 noundef %46) #16
  br label %115

51:                                               ; preds = %39, %34, %31, %28
  %52 = load i32, ptr @av_log_default_callback.count, align 4, !tbaa !17
  %53 = icmp sgt i32 %52, 0
  br i1 %53, label %54, label %57

54:                                               ; preds = %51
  %55 = load ptr, ptr @stderr, align 8, !tbaa !30
  %56 = call i32 (ptr, ptr, ...) @fprintf(ptr noundef %55, ptr noundef nonnull @.str.2, i32 noundef %52) #16
  store i32 0, ptr @av_log_default_callback.count, align 4, !tbaa !17
  br label %57

57:                                               ; preds = %54, %51
  %58 = call ptr @strcpy(ptr noundef nonnull dereferenceable(1) @av_log_default_callback.prev, ptr noundef nonnull dereferenceable(1) %6) #14
  %59 = getelementptr inbounds nuw i8, ptr %5, i64 4096
  %60 = load ptr, ptr %59, align 16, !tbaa !15
  %61 = load i8, ptr %60, align 1, !tbaa !27
  %.not9.i = icmp eq i8 %61, 0
  br i1 %.not9.i, label %sanitize.exit, label %.lr.ph.i

.lr.ph.i:                                         ; preds = %57, %66
  %62 = phi i8 [ %68, %66 ], [ %61, %57 ]
  %.010.i = phi ptr [ %67, %66 ], [ %60, %57 ]
  %63 = icmp ult i8 %62, 8
  %64 = add i8 %62, -14
  %or.cond.i = icmp ult i8 %64, 18
  %or.cond8.i = or i1 %63, %or.cond.i
  br i1 %or.cond8.i, label %65, label %66

65:                                               ; preds = %.lr.ph.i
  store i8 63, ptr %.010.i, align 1, !tbaa !27
  br label %66

66:                                               ; preds = %65, %.lr.ph.i
  %67 = getelementptr inbounds nuw i8, ptr %.010.i, i64 1
  %68 = load i8, ptr %67, align 1, !tbaa !27
  %.not.i = icmp eq i8 %68, 0
  br i1 %.not.i, label %sanitize.exit.loopexit, label %.lr.ph.i, !llvm.loop !32

sanitize.exit.loopexit:                           ; preds = %66
  %.pre = load ptr, ptr %59, align 16, !tbaa !15
  br label %sanitize.exit

sanitize.exit:                                    ; preds = %sanitize.exit.loopexit, %57
  %69 = phi ptr [ %.pre, %sanitize.exit.loopexit ], [ %60, %57 ]
  call fastcc void @colored_fputs(i32 noundef 7, i32 noundef 0, ptr noundef %69)
  %70 = load ptr, ptr %5, align 16, !tbaa !15
  %71 = load i8, ptr %70, align 1, !tbaa !27
  %.not9.i21 = icmp eq i8 %71, 0
  br i1 %.not9.i21, label %sanitize.exit27, label %.lr.ph.i22

.lr.ph.i22:                                       ; preds = %sanitize.exit, %76
  %72 = phi i8 [ %78, %76 ], [ %71, %sanitize.exit ]
  %.010.i23 = phi ptr [ %77, %76 ], [ %70, %sanitize.exit ]
  %73 = icmp ult i8 %72, 8
  %74 = add i8 %72, -14
  %or.cond.i24 = icmp ult i8 %74, 18
  %or.cond8.i25 = or i1 %73, %or.cond.i24
  br i1 %or.cond8.i25, label %75, label %76

75:                                               ; preds = %.lr.ph.i22
  store i8 63, ptr %.010.i23, align 1, !tbaa !27
  br label %76

76:                                               ; preds = %75, %.lr.ph.i22
  %77 = getelementptr inbounds nuw i8, ptr %.010.i23, i64 1
  %78 = load i8, ptr %77, align 1, !tbaa !27
  %.not.i26 = icmp eq i8 %78, 0
  br i1 %.not.i26, label %sanitize.exit27.loopexit, label %.lr.ph.i22, !llvm.loop !32

sanitize.exit27.loopexit:                         ; preds = %76
  %.pre49 = load ptr, ptr %5, align 16, !tbaa !15
  br label %sanitize.exit27

sanitize.exit27:                                  ; preds = %sanitize.exit27.loopexit, %sanitize.exit
  %79 = phi ptr [ %.pre49, %sanitize.exit27.loopexit ], [ %70, %sanitize.exit ]
  %80 = load i32, ptr %7, align 4, !tbaa !17
  call fastcc void @colored_fputs(i32 noundef %80, i32 noundef 0, ptr noundef %79)
  %81 = load ptr, ptr %17, align 16, !tbaa !15
  %82 = load i8, ptr %81, align 1, !tbaa !27
  %.not9.i28 = icmp eq i8 %82, 0
  br i1 %.not9.i28, label %sanitize.exit34, label %.lr.ph.i29

.lr.ph.i29:                                       ; preds = %sanitize.exit27, %87
  %83 = phi i8 [ %89, %87 ], [ %82, %sanitize.exit27 ]
  %.010.i30 = phi ptr [ %88, %87 ], [ %81, %sanitize.exit27 ]
  %84 = icmp ult i8 %83, 8
  %85 = add i8 %83, -14
  %or.cond.i31 = icmp ult i8 %85, 18
  %or.cond8.i32 = or i1 %84, %or.cond.i31
  br i1 %or.cond8.i32, label %86, label %87

86:                                               ; preds = %.lr.ph.i29
  store i8 63, ptr %.010.i30, align 1, !tbaa !27
  br label %87

87:                                               ; preds = %86, %.lr.ph.i29
  %88 = getelementptr inbounds nuw i8, ptr %.010.i30, i64 1
  %89 = load i8, ptr %88, align 1, !tbaa !27
  %.not.i33 = icmp eq i8 %89, 0
  br i1 %.not.i33, label %sanitize.exit34.loopexit, label %.lr.ph.i29, !llvm.loop !32

sanitize.exit34.loopexit:                         ; preds = %87
  %.pre50 = load ptr, ptr %17, align 16, !tbaa !15
  br label %sanitize.exit34

sanitize.exit34:                                  ; preds = %sanitize.exit34.loopexit, %sanitize.exit27
  %90 = phi ptr [ %.pre50, %sanitize.exit34.loopexit ], [ %81, %sanitize.exit27 ]
  %91 = getelementptr inbounds nuw i8, ptr %7, i64 4
  %92 = load i32, ptr %91, align 4, !tbaa !17
  call fastcc void @colored_fputs(i32 noundef %92, i32 noundef 0, ptr noundef %90)
  %93 = load ptr, ptr %19, align 16, !tbaa !15
  %94 = load i8, ptr %93, align 1, !tbaa !27
  %.not9.i35 = icmp eq i8 %94, 0
  br i1 %.not9.i35, label %sanitize.exit41, label %.lr.ph.i36

.lr.ph.i36:                                       ; preds = %sanitize.exit34, %99
  %95 = phi i8 [ %101, %99 ], [ %94, %sanitize.exit34 ]
  %.010.i37 = phi ptr [ %100, %99 ], [ %93, %sanitize.exit34 ]
  %96 = icmp ult i8 %95, 8
  %97 = add i8 %95, -14
  %or.cond.i38 = icmp ult i8 %97, 18
  %or.cond8.i39 = or i1 %96, %or.cond.i38
  br i1 %or.cond8.i39, label %98, label %99

98:                                               ; preds = %.lr.ph.i36
  store i8 63, ptr %.010.i37, align 1, !tbaa !27
  br label %99

99:                                               ; preds = %98, %.lr.ph.i36
  %100 = getelementptr inbounds nuw i8, ptr %.010.i37, i64 1
  %101 = load i8, ptr %100, align 1, !tbaa !27
  %.not.i40 = icmp eq i8 %101, 0
  br i1 %.not.i40, label %sanitize.exit41.loopexit, label %.lr.ph.i36, !llvm.loop !32

sanitize.exit41.loopexit:                         ; preds = %99
  %.pre51 = load ptr, ptr %19, align 16, !tbaa !15
  br label %sanitize.exit41

sanitize.exit41:                                  ; preds = %sanitize.exit41.loopexit, %sanitize.exit34
  %102 = phi ptr [ %.pre51, %sanitize.exit41.loopexit ], [ %93, %sanitize.exit34 ]
  %103 = ashr i32 %.014, 3
  %104 = icmp slt i32 %103, 0
  %..i = call i32 @llvm.umin.i32(i32 %103, i32 7)
  %.0.i = select i1 %104, i32 0, i32 %..i
  call fastcc void @colored_fputs(i32 noundef %.0.i, i32 noundef %.0, ptr noundef %102)
  %105 = load ptr, ptr %21, align 16, !tbaa !15
  %106 = load i8, ptr %105, align 1, !tbaa !27
  %.not9.i42 = icmp eq i8 %106, 0
  br i1 %.not9.i42, label %sanitize.exit48, label %.lr.ph.i43

.lr.ph.i43:                                       ; preds = %sanitize.exit41, %111
  %107 = phi i8 [ %113, %111 ], [ %106, %sanitize.exit41 ]
  %.010.i44 = phi ptr [ %112, %111 ], [ %105, %sanitize.exit41 ]
  %108 = icmp ult i8 %107, 8
  %109 = add i8 %107, -14
  %or.cond.i45 = icmp ult i8 %109, 18
  %or.cond8.i46 = or i1 %108, %or.cond.i45
  br i1 %or.cond8.i46, label %110, label %111

110:                                              ; preds = %.lr.ph.i43
  store i8 63, ptr %.010.i44, align 1, !tbaa !27
  br label %111

111:                                              ; preds = %110, %.lr.ph.i43
  %112 = getelementptr inbounds nuw i8, ptr %.010.i44, i64 1
  %113 = load i8, ptr %112, align 1, !tbaa !27
  %.not.i47 = icmp eq i8 %113, 0
  br i1 %.not.i47, label %sanitize.exit48.loopexit, label %.lr.ph.i43, !llvm.loop !32

sanitize.exit48.loopexit:                         ; preds = %111
  %.pre52 = load ptr, ptr %21, align 16, !tbaa !15
  br label %sanitize.exit48

sanitize.exit48:                                  ; preds = %sanitize.exit48.loopexit, %sanitize.exit41
  %114 = phi ptr [ %.pre52, %sanitize.exit48.loopexit ], [ %105, %sanitize.exit41 ]
  call fastcc void @colored_fputs(i32 noundef %.0.i, i32 noundef %.0, ptr noundef %114)
  br label %115

115:                                              ; preds = %44, %48, %sanitize.exit48
  %116 = call i32 @av_bprint_finalize(ptr noundef nonnull %21, ptr noundef null) #14
  %117 = call i32 @pthread_mutex_unlock(ptr noundef nonnull @mutex) #14
  br label %118

118:                                              ; preds = %4, %115
  call void @llvm.lifetime.end.p0(i64 8, ptr nonnull %7) #14
  call void @llvm.lifetime.end.p0(i64 1024, ptr nonnull %6) #14
  call void @llvm.lifetime.end.p0(i64 5120, ptr nonnull %5) #14
  ret void
}